target datalayout = "e-m:e-p270:32:32-p271:32:32-p272:64:64-i64:64-i128:128-f80:128-n8:16:32:64-S128"
target triple = "x86_64-pc-linux-gnu"

%"class.gmx::AbstractAnalysisData" = type { ptr, %"class.std::unique_ptr" }
%"class.std::unique_ptr" = type { %"struct.std::__uniq_ptr_data" }
%"struct.std::__uniq_ptr_data" = type { %"class.std::__uniq_ptr_impl" }
%"class.std::__uniq_ptr_impl" = type { %"class.std::tuple" }
%"class.std::tuple" = type { %"struct.std::_Tuple_impl" }
%"struct.std::_Tuple_impl" = type { %"struct.std::_Head_base.4" }
%"struct.std::_Head_base.4" = type { ptr }
%"class.gmx::AnalysisDataPointSetInfo" = type { i32, i32, i32, i32 }
%"class.std::vector" = type { %"struct.std::_Vector_base" }
%"struct.std::_Vector_base" = type { %"struct.std::_Vector_base<gmx::AnalysisDataValue, std::allocator<gmx::AnalysisDataValue>>::_Vector_impl" }
%"struct.std::_Vector_base<gmx::AnalysisDataValue, std::allocator<gmx::AnalysisDataValue>>::_Vector_impl" = type { %"struct.std::_Vector_base<gmx::AnalysisDataValue, std::allocator<gmx::AnalysisDataValue>>::_Vector_impl_data" }
%"struct.std::_Vector_base<gmx::AnalysisDataValue, std::allocator<gmx::AnalysisDataValue>>::_Vector_impl_data" = type { ptr, ptr, ptr }
%"class.std::vector.5" = type { %"struct.std::_Vector_base.6" }
%"struct.std::_Vector_base.6" = type { %"struct.std::_Vector_base<float, std::allocator<float>>::_Vector_impl" }
%"struct.std::_Vector_base<float, std::allocator<float>>::_Vector_impl" = type { %"struct.std::_Vector_base<float, std::allocator<float>>::_Vector_impl_data" }
%"struct.std::_Vector_base<float, std::allocator<float>>::_Vector_impl_data" = type { ptr, ptr, ptr }
%"class.gmx::AnalysisDataFrameHeader" = type { i32, float, float }
%"class.gmx::AnalysisDataLifetimeModule" = type { %"class.gmx::AbstractAnalysisArrayData.base", %"class.gmx::AnalysisDataModuleSerial", %"class.std::unique_ptr.10" }
%"class.gmx::AbstractAnalysisArrayData.base" = type <{ %"class.gmx::AbstractAnalysisData", i32, %"class.gmx::AnalysisDataPointSetInfo", [4 x i8], %"class.std::vector", %"class.std::vector.5", float, i8, i8 }>
%"class.gmx::AnalysisDataModuleSerial" = type { %"class.gmx::IAnalysisDataModule" }
%"class.gmx::IAnalysisDataModule" = type { ptr }
%"class.std::unique_ptr.10" = type { %"struct.std::__uniq_ptr_data.11" }
%"struct.std::__uniq_ptr_data.11" = type { %"class.std::__uniq_ptr_impl.12" }
%"class.std::__uniq_ptr_impl.12" = type { %"class.std::tuple.13" }
%"class.std::tuple.13" = type { %"struct.std::_Tuple_impl.14" }
%"struct.std::_Tuple_impl.14" = type { %"struct.std::_Head_base.17" }
%"struct.std::_Head_base.17" = type { ptr }
%"class.gmx::AnalysisDataLifetimeModule::Impl" = type { float, float, i32, i8, %"class.std::vector.18", %"class.std::vector.23" }
%"class.std::vector.18" = type { %"struct.std::_Vector_base.19" }
%"struct.std::_Vector_base.19" = type { %"struct.std::_Vector_base<std::vector<int>, std::allocator<std::vector<int>>>::_Vector_impl" }
%"struct.std::_Vector_base<std::vector<int>, std::allocator<std::vector<int>>>::_Vector_impl" = type { %"struct.std::_Vector_base<std::vector<int>, std::allocator<std::vector<int>>>::_Vector_impl_data" }
%"struct.std::_Vector_base<std::vector<int>, std::allocator<std::vector<int>>>::_Vector_impl_data" = type { ptr, ptr, ptr }
%"class.std::vector.23" = type { %"struct.std::_Vector_base.24" }
%"struct.std::_Vector_base.24" = type { %"struct.std::_Vector_base<std::deque<int>, std::allocator<std::deque<int>>>::_Vector_impl" }
%"struct.std::_Vector_base<std::deque<int>, std::allocator<std::deque<int>>>::_Vector_impl" = type { %"struct.std::_Vector_base<std::deque<int>, std::allocator<std::deque<int>>>::_Vector_impl_data" }
%"struct.std::_Vector_base<std::deque<int>, std::allocator<std::deque<int>>>::_Vector_impl_data" = type { ptr, ptr, ptr }

; Function Attrs: mustprogress nounwind uwtable
define linkonce_odr noundef nonnull align 8 dereferenceable(8) ptr @_ZNSt10_Head_baseILm0EPN3gmx26AnalysisDataLifetimeModule4ImplELb0EE7_M_headERKS4_(ptr noundef nonnull align 8 dereferenceable(8) %0) #0 comdat align 2 {
  %2 = alloca ptr, align 8
  store ptr %0, ptr %2, align 8
  %3 = load ptr, ptr %2, align 8
  %4 = getelementptr inbounds %"struct.std::_Head_base.17", ptr %3, i32 0, i32 0
  ret ptr %4
}

; Function Attrs: mustprogress nounwind uwtable
define linkonce_odr noundef nonnull align 8 dereferenceable(8) ptr @_ZNSt11_Tuple_implILm0EJPN3gmx26AnalysisDataLifetimeModule4ImplESt14default_deleteIS2_EEE7_M_headERKS6_(ptr noundef nonnull align 8 dereferenceable(8) %0) #0 comdat align 2 {
  %2 = alloca ptr, align 8
  store ptr %0, ptr %2, align 8
  %3 = load ptr, ptr %2, align 8
  %4 = call noundef nonnull align 8 dereferenceable(8) ptr @_ZNSt10_Head_baseILm0EPN3gmx26AnalysisDataLifetimeModule4ImplELb0EE7_M_headERKS4_(ptr noundef nonnull align 8 dereferenceable(8) %3) #13
  ret ptr %4
}

; Function Attrs: mustprogress nounwind uwtable
define linkonce_odr noundef nonnull align 8 dereferenceable(8) ptr @_ZSt12__get_helperILm0EPN3gmx26AnalysisDataLifetimeModule4ImplEJSt14default_deleteIS2_EEERKT0_RKSt11_Tuple_implIXT_EJS6_DpT1_EE(ptr noundef nonnull align 8 dereferenceable(8) %0) #0 comdat {
  %2 = alloca ptr, align 8
  store ptr %0, ptr %2, align 8
  %3 = load ptr, ptr %2, align 8
  %4 = call noundef nonnull align 8 dereferenceable(8) ptr @_ZNSt11_Tuple_implILm0EJPN3gmx26AnalysisDataLifetimeModule4ImplESt14default_deleteIS2_EEE7_M_headERKS6_(ptr noundef nonnull align 8 dereferenceable(8) %3) #13
  ret ptr %4
}

; Function Attrs: mustprogress nounwind uwtable
define linkonce_odr noundef nonnull align 8 dereferenceable(8) ptr @_ZSt3getILm0EJPN3gmx26AnalysisDataLifetimeModule4ImplESt14default_deleteIS2_EEERKNSt13tuple_elementIXT_ESt5tupleIJDpT0_EEE4typeERKSA_(ptr noundef nonnull align 8 dereferenceable(8) %0) #0 comdat {
  %2 = alloca ptr, align 8
  store ptr %0, ptr %2, align 8
  %3 = load ptr, ptr %2, align 8
  %4 = call noundef nonnull align 8 dereferenceable(8) ptr @_ZSt12__get_helperILm0EPN3gmx26AnalysisDataLifetimeModule4ImplEJSt14default_deleteIS2_EEERKT0_RKSt11_Tuple_implIXT_EJS6_DpT1_EE(ptr noundef nonnull align 8 dereferenceable(8) %3) #13
  ret ptr %4
}

; Function Attrs: mustprogress nounwind uwtable
define linkonce_odr noundef ptr @_ZNKSt15__uniq_ptr_implIN3gmx26AnalysisDataLifetimeModule4ImplESt14default_deleteIS2_EE6_M_ptrEv(ptr noundef nonnull align 8 dereferenceable(8) %0) #0 comdat align 2 {
  %2 = alloca ptr, align 8
  store ptr %0, ptr %2, align 8
  %3 = load ptr, ptr %2, align 8
  %4 = getelementptr inbounds %"class.std::__uniq_ptr_impl.12", ptr %3, i32 0, i32 0
  %5 = call noundef nonnull align 8 dereferenceable(8) ptr @_ZSt3getILm0EJPN3gmx26AnalysisDataLifetimeModule4ImplESt14default_deleteIS2_EEERKNSt13tuple_elementIXT_ESt5tupleIJDpT0_EEE4typeERKSA_(ptr noundef nonnull align 8 dereferenceable(8) %4) #13
  %6 = load ptr, ptr %5, align 8
  ret ptr %6
}

; Function Attrs: mustprogress nounwind uwtable
define linkonce_odr noundef ptr @_ZNKSt10unique_ptrIN3gmx26AnalysisDataLifetimeModule4ImplESt14default_deleteIS2_EE3getEv(ptr noundef nonnull align 8 dereferenceable(8) %0) #0 comdat align 2 {
  %2 = alloca ptr, align 8
  store ptr %0, ptr %2, align 8
  %3 = load ptr, ptr %2, align 8
  %4 = getelementptr inbounds %"class.std::unique_ptr.10", ptr %3, i32 0, i32 0
  %5 = call noundef ptr @_ZNKSt15__uniq_ptr_implIN3gmx26AnalysisDataLifetimeModule4ImplESt14default_deleteIS2_EE6_M_ptrEv(ptr noundef nonnull align 8 dereferenceable(8) %4) #13
  ret ptr %5
}

; Function Attrs: mustprogress nounwind uwtable
define linkonce_odr noundef ptr @_ZNKSt10unique_ptrIN3gmx26AnalysisDataLifetimeModule4ImplESt14default_deleteIS2_EEptEv(ptr noundef nonnull align 8 dereferenceable(8) %0) #0 comdat align 2 {
  %2 = alloca ptr, align 8
  store ptr %0, ptr %2, align 8
  %3 = load ptr, ptr %2, align 8
  %4 = call noundef ptr @_ZNKSt10unique_ptrIN3gmx26AnalysisDataLifetimeModule4ImplESt14default_deleteIS2_EE3getEv(ptr noundef nonnull align 8 dereferenceable(8) %3) #13
  ret ptr %4
}

; Function Attrs: mustprogress nounwind uwtable
define linkonce_odr noundef float @_ZNK3gmx23AnalysisDataFrameHeader1xEv(ptr noundef nonnull align 4 dereferenceable(12) %0) #0 comdat align 2 {
  %2 = alloca ptr, align 8
  store ptr %0, ptr %2, align 8
  %3 = load ptr, ptr %2, align 8
  %4 = getelementptr inbounds %"class.gmx::AnalysisDataFrameHeader", ptr %3, i32 0, i32 1
  %5 = load float, ptr %4, align 4
  ret float %5
}

; Function Attrs: mustprogress nounwind uwtable
define linkonce_odr noundef i32 @_ZNK3gmx23AnalysisDataFrameHeader5indexEv(ptr noundef nonnull align 4 dereferenceable(12) %0) #0 comdat align 2 {
  %2 = alloca ptr, align 8
  store ptr %0, ptr %2, align 8
  %3 = load ptr, ptr %2, align 8
  %4 = getelementptr inbounds %"class.gmx::AnalysisDataFrameHeader", ptr %3, i32 0, i32 0
  %5 = load i32, ptr %4, align 4
  ret i32 %5
}

; Function Attrs: mustprogress uwtable
define void @_ZN3gmx26AnalysisDataLifetimeModule12frameStartedERKNS_23AnalysisDataFrameHeaderE(ptr noundef nonnull align 8 dereferenceable(112) %0, ptr noundef nonnull align 4 dereferenceable(12) %1) unnamed_addr #2 align 2 {
  %3 = alloca ptr, align 8
  %4 = alloca ptr, align 8
  store ptr %0, ptr %3, align 8
  store ptr %1, ptr %4, align 8
  %5 = load ptr, ptr %3, align 8
  %6 = load ptr, ptr %4, align 8
  %7 = call noundef i32 @_ZNK3gmx23AnalysisDataFrameHeader5indexEv(ptr noundef nonnull align 4 dereferenceable(12) %6)
  %8 = icmp eq i32 %7, 0
  br i1 %8, label %9, label %15

9:                                                ; preds = %2
  %10 = load ptr, ptr %4, align 8
  %11 = call noundef float @_ZNK3gmx23AnalysisDataFrameHeader1xEv(ptr noundef nonnull align 4 dereferenceable(12) %10)
  %12 = getelementptr inbounds %"class.gmx::AnalysisDataLifetimeModule", ptr %5, i32 0, i32 2
  %13 = call noundef ptr @_ZNKSt10unique_ptrIN3gmx26AnalysisDataLifetimeModule4ImplESt14default_deleteIS2_EEptEv(ptr noundef nonnull align 8 dereferenceable(8) %12) #13
  %14 = getelementptr inbounds %"class.gmx::AnalysisDataLifetimeModule::Impl", ptr %13, i32 0, i32 0
  store float %11, ptr %14, align 8
  br label %15

15:                                               ; preds = %9, %2
  %16 = load ptr, ptr %4, align 8
  %17 = call noundef float @_ZNK3gmx23AnalysisDataFrameHeader1xEv(ptr noundef nonnull align 4 dereferenceable(12) %16)
  %18 = getelementptr inbounds %"class.gmx::AnalysisDataLifetimeModule", ptr %5, i32 0, i32 2
  %19 = call noundef ptr @_ZNKSt10unique_ptrIN3gmx26AnalysisDataLifetimeModule4ImplESt14default_deleteIS2_EEptEv(ptr noundef nonnull align 8 dereferenceable(8) %18) #13
  %20 = getelementptr inbounds %"class.gmx::AnalysisDataLifetimeModule::Impl", ptr %19, i32 0, i32 1
  store float %17, ptr %20, align 4
  %21 = getelementptr inbounds %"class.gmx::AnalysisDataLifetimeModule", ptr %5, i32 0, i32 2
  %22 = call noundef ptr @_ZNKSt10unique_ptrIN3gmx26AnalysisDataLifetimeModule4ImplESt14default_deleteIS2_EEptEv(ptr noundef nonnull align 8 dereferenceable(8) %21) #13
  %23 = getelementptr inbounds %"class.gmx::AnalysisDataLifetimeModule::Impl", ptr %22, i32 0, i32 2
  %24 = load i32, ptr %23, align 8
  %25 = add nsw i32 %24, 1
  store i32 %25, ptr %23, align 8
  ret void
}