; Function Attrs: mustprogress nofree norecurse nosync nounwind willreturn memory(readwrite, inaccessiblemem: none) uwtable
define void @_ZN3gmx26AnalysisDataLifetimeModule12frameStartedERKNS_23AnalysisDataFrameHeaderE(ptr nocapture noundef nonnull readonly align 8 dereferenceable(112) %0, ptr nocapture noundef nonnull readonly align 4 dereferenceable(12) %1) unnamed_addr #4 align 2 {
  %3 = load i32, ptr %1, align 4
  %4 = icmp eq i32 %3, 0
  %5 = getelementptr inbounds i8, ptr %1, i64 4
  %6 = load float, ptr %5, align 4
  br i1 %4, label %7, label %._crit_edge

7:                                                ; preds = %2
  %8 = getelementptr inbounds i8, ptr %0, i64 104
  %9 = load ptr, ptr %8, align 8
  store float %6, ptr %9, align 8
  br label %._crit_edge

._crit_edge:                                      ; preds = %2, %7
  %10 = getelementptr inbounds i8, ptr %0, i64 104
  %11 = load ptr, ptr %10, align 8
  %12 = getelementptr inbounds i8, ptr %11, i64 4
  store float %6, ptr %12, align 4
  %13 = load ptr, ptr %10, align 8
  %14 = getelementptr inbounds i8, ptr %13, i64 8
  %15 = load i32, ptr %14, align 8
  %16 = add nsw i32 %15, 1
  store i32 %16, ptr %14, align 8
  ret void
}